; Function Attrs: mustprogress nounwind uwtable
define void @rocksdb_optimistictransactiondb_close(ptr noundef %0) local_unnamed_addr #6 {
  %2 = load ptr, ptr %0, align 8, !tbaa !1207
  %3 = icmp eq ptr %2, null
  br i1 %3, label %8, label %4

4:                                                ; preds = %1
  %5 = load ptr, ptr %2, align 8, !tbaa !23
  %6 = getelementptr inbounds nuw i8, ptr %5, i64 24
  %7 = load ptr, ptr %6, align 8
  tail call void %7(ptr noundef nonnull align 8 dereferenceable(32) %2) #43
  br label %8

8:                                                ; preds = %1, %4
  tail call void @_ZdlPvm(ptr noundef nonnull %0, i64 noundef 8) #45
  ret void
}